; Function Attrs: mustprogress uwtable
define noundef zeroext i1 @_ZNK8facebook5velox9RowVector14containsNullAtEi(ptr nocapture noundef nonnull readonly align 8 dereferenceable(138) %this, i32 noundef %idx) unnamed_addr #0 align 2 {
entry:
  %rawNulls_.i = getelementptr inbounds i8, ptr %this, i64 40
  %0 = load ptr, ptr %rawNulls_.i, align 8
  %tobool.not.i = icmp eq ptr %0, null
  br i1 %tobool.not.i, label %if.end, label %_ZNK8facebook5velox10BaseVector8isNullAtEi.exit

_ZNK8facebook5velox10BaseVector8isNullAtEi.exit:  ; preds = %entry
  %conv.i.i.i = sext i32 %idx to i64
  %div2.i.i.i = lshr i64 %conv.i.i.i, 6
  %arrayidx.i.i.i = getelementptr inbounds i64, ptr %0, i64 %div2.i.i.i
  %1 = load i64, ptr %arrayidx.i.i.i, align 8
  %and.i.i.i = and i64 %conv.i.i.i, 63
  %shl.i.i.i = shl nuw i64 1, %and.i.i.i
  %and2.i.i.i = and i64 %1, %shl.i.i.i
  %tobool.i.not.i.i = icmp eq i64 %and2.i.i.i, 0
  br i1 %tobool.i.not.i.i, label %return, label %if.end

if.end:                                           ; preds = %entry, %_ZNK8facebook5velox10BaseVector8isNullAtEi.exit
  %children_ = getelementptr inbounds i8, ptr %this, i64 112
  %2 = load ptr, ptr %children_, align 8
  %_M_finish.i = getelementptr inbounds i8, ptr %this, i64 120
  %3 = load ptr, ptr %_M_finish.i, align 8
  %cmp.i.not7 = icmp eq ptr %2, %3
  br i1 %cmp.i.not7, label %return, label %for.body

for.body:                                         ; preds = %if.end, %for.inc
  %__begin2.sroa.0.08 = phi ptr [ %incdec.ptr.i, %for.inc ], [ %2, %if.end ]
  %4 = load ptr, ptr %__begin2.sroa.0.08, align 8
  %cmp.i.i.not = icmp eq ptr %4, null
  br i1 %cmp.i.i.not, label %for.inc, label %land.lhs.true

land.lhs.true:                                    ; preds = %for.body
  %vtable = load ptr, ptr %4, align 8
  %vfn = getelementptr inbounds i8, ptr %vtable, i64 40
  %5 = load ptr, ptr %vfn, align 8
  %call9 = tail call noundef zeroext i1 %5(ptr noundef nonnull align 8 dereferenceable(99) %4, i32 noundef %idx)
  br i1 %call9, label %return, label %for.inc

for.inc:                                          ; preds = %for.body, %land.lhs.true
  %incdec.ptr.i = getelementptr inbounds i8, ptr %__begin2.sroa.0.08, i64 16
  %cmp.i.not = icmp eq ptr %incdec.ptr.i, %3
  br i1 %cmp.i.not, label %return, label %for.body

return:                                           ; preds = %land.lhs.true, %for.inc, %if.end, %_ZNK8facebook5velox10BaseVector8isNullAtEi.exit
  %retval.0 = phi i1 [ true, %_ZNK8facebook5velox10BaseVector8isNullAtEi.exit ], [ false, %if.end ], [ true, %land.lhs.true ], [ false, %for.inc ]
  ret i1 %retval.0
}